target datalayout = "e-m:e-p270:32:32-p271:32:32-p272:64:64-i64:64-i128:128-f80:128-n8:16:32:64-S128"
target triple = "x86_64-pc-linux-gnu"

%struct.yyjson_alc = type { ptr, ptr, ptr, ptr }
%struct.yyjson_str_pool = type { ptr, ptr, i64, i64, ptr }
%struct.yyjson_str_chunk = type { ptr, i64 }

; Function Attrs: nounwind uwtable
define dso_local zeroext i1 @unsafe_yyjson_str_pool_grow(ptr noundef %0, ptr noundef %1, i64 noundef %2) #0 {
  %4 = alloca i1, align 1
  %5 = alloca ptr, align 8
  %6 = alloca ptr, align 8
  %7 = alloca i64, align 8
  %8 = alloca ptr, align 8
  %9 = alloca i64, align 8
  %10 = alloca i64, align 8
  %11 = alloca i32, align 4
  store ptr %0, ptr %5, align 8, !tbaa !43
  store ptr %1, ptr %6, align 8, !tbaa !4
  store i64 %2, ptr %7, align 8, !tbaa !10
  call void @llvm.lifetime.start.p0(i64 8, ptr %8) #13
  call void @llvm.lifetime.start.p0(i64 8, ptr %9) #13
  call void @llvm.lifetime.start.p0(i64 8, ptr %10) #13
  store i64 -17, ptr %10, align 8, !tbaa !10
  %12 = load i64, ptr %7, align 8, !tbaa !10
  %13 = load i64, ptr %10, align 8, !tbaa !10
  %14 = icmp ugt i64 %12, %13
  %15 = xor i1 %14, true
  %16 = xor i1 %15, true
  %17 = zext i1 %16 to i32
  %18 = sext i32 %17 to i64
  %19 = call i64 @llvm.expect.i64(i64 %18, i64 0)
  %20 = icmp ne i64 %19, 0
  br i1 %20, label %21, label %22

21:                                               ; preds = %3
  store i1 false, ptr %4, align 1
  store i32 1, ptr %11, align 4
  br label %109

22:                                               ; preds = %3
  %23 = load i64, ptr %7, align 8, !tbaa !10
  %24 = add i64 %23, 16
  store i64 %24, ptr %9, align 8, !tbaa !10
  %25 = load ptr, ptr %5, align 8, !tbaa !43
  %26 = getelementptr inbounds nuw %struct.yyjson_str_pool, ptr %25, i32 0, i32 2
  %27 = load i64, ptr %26, align 8, !tbaa !45
  %28 = load i64, ptr %9, align 8, !tbaa !10
  %29 = icmp ugt i64 %27, %28
  br i1 %29, label %30, label %34

30:                                               ; preds = %22
  %31 = load ptr, ptr %5, align 8, !tbaa !43
  %32 = getelementptr inbounds nuw %struct.yyjson_str_pool, ptr %31, i32 0, i32 2
  %33 = load i64, ptr %32, align 8, !tbaa !45
  br label %36

34:                                               ; preds = %22
  %35 = load i64, ptr %9, align 8, !tbaa !10
  br label %36

36:                                               ; preds = %34, %30
  %37 = phi i64 [ %33, %30 ], [ %35, %34 ]
  store i64 %37, ptr %9, align 8, !tbaa !10
  %38 = load ptr, ptr %6, align 8, !tbaa !4
  %39 = getelementptr inbounds nuw %struct.yyjson_alc, ptr %38, i32 0, i32 0
  %40 = load ptr, ptr %39, align 8, !tbaa !23
  %41 = load ptr, ptr %6, align 8, !tbaa !4
  %42 = getelementptr inbounds nuw %struct.yyjson_alc, ptr %41, i32 0, i32 3
  %43 = load ptr, ptr %42, align 8, !tbaa !27
  %44 = load i64, ptr %9, align 8, !tbaa !10
  %45 = call ptr %40(ptr noundef %43, i64 noundef %44)
  store ptr %45, ptr %8, align 8, !tbaa !49
  %46 = load ptr, ptr %8, align 8, !tbaa !49
  %47 = icmp ne ptr %46, null
  %48 = xor i1 %47, true
  %49 = xor i1 %48, true
  %50 = xor i1 %49, true
  %51 = zext i1 %50 to i32
  %52 = sext i32 %51 to i64
  %53 = call i64 @llvm.expect.i64(i64 %52, i64 0)
  %54 = icmp ne i64 %53, 0
  br i1 %54, label %55, label %56

55:                                               ; preds = %36
  store i1 false, ptr %4, align 1
  store i32 1, ptr %11, align 4
  br label %109

56:                                               ; preds = %36
  %57 = load ptr, ptr %5, align 8, !tbaa !43
  %58 = getelementptr inbounds nuw %struct.yyjson_str_pool, ptr %57, i32 0, i32 4
  %59 = load ptr, ptr %58, align 8, !tbaa !50
  %60 = load ptr, ptr %8, align 8, !tbaa !49
  %61 = getelementptr inbounds nuw %struct.yyjson_str_chunk, ptr %60, i32 0, i32 0
  store ptr %59, ptr %61, align 8, !tbaa !51
  %62 = load i64, ptr %9, align 8, !tbaa !10
  %63 = load ptr, ptr %8, align 8, !tbaa !49
  %64 = getelementptr inbounds nuw %struct.yyjson_str_chunk, ptr %63, i32 0, i32 1
  store i64 %62, ptr %64, align 8, !tbaa !53
  %65 = load ptr, ptr %8, align 8, !tbaa !49
  %66 = load ptr, ptr %5, align 8, !tbaa !43
  %67 = getelementptr inbounds nuw %struct.yyjson_str_pool, ptr %66, i32 0, i32 4
  store ptr %65, ptr %67, align 8, !tbaa !50
  %68 = load ptr, ptr %8, align 8, !tbaa !49
  %69 = getelementptr inbounds nuw i8, ptr %68, i64 16
  %70 = load ptr, ptr %5, align 8, !tbaa !43
  %71 = getelementptr inbounds nuw %struct.yyjson_str_pool, ptr %70, i32 0, i32 0
  store ptr %69, ptr %71, align 8, !tbaa !54
  %72 = load ptr, ptr %8, align 8, !tbaa !49
  %73 = load i64, ptr %9, align 8, !tbaa !10
  %74 = getelementptr inbounds nuw i8, ptr %72, i64 %73
  %75 = load ptr, ptr %5, align 8, !tbaa !43
  %76 = getelementptr inbounds nuw %struct.yyjson_str_pool, ptr %75, i32 0, i32 1
  store ptr %74, ptr %76, align 8, !tbaa !55
  %77 = load ptr, ptr %5, align 8, !tbaa !43
  %78 = getelementptr inbounds nuw %struct.yyjson_str_pool, ptr %77, i32 0, i32 2
  %79 = load i64, ptr %78, align 8, !tbaa !45
  %80 = mul i64 %79, 2
  %81 = load ptr, ptr %5, align 8, !tbaa !43
  %82 = getelementptr inbounds nuw %struct.yyjson_str_pool, ptr %81, i32 0, i32 3
  %83 = load i64, ptr %82, align 8, !tbaa !56
  %84 = icmp ult i64 %80, %83
  br i1 %84, label %85, label %90

85:                                               ; preds = %56
  %86 = load ptr, ptr %5, align 8, !tbaa !43
  %87 = getelementptr inbounds nuw %struct.yyjson_str_pool, ptr %86, i32 0, i32 2
  %88 = load i64, ptr %87, align 8, !tbaa !45
  %89 = mul i64 %88, 2
  br label %94

90:                                               ; preds = %56
  %91 = load ptr, ptr %5, align 8, !tbaa !43
  %92 = getelementptr inbounds nuw %struct.yyjson_str_pool, ptr %91, i32 0, i32 3
  %93 = load i64, ptr %92, align 8, !tbaa !56
  br label %94

94:                                               ; preds = %90, %85
  %95 = phi i64 [ %89, %85 ], [ %93, %90 ]
  store i64 %95, ptr %9, align 8, !tbaa !10
  %96 = load i64, ptr %9, align 8, !tbaa !10
  %97 = load ptr, ptr %5, align 8, !tbaa !43
  %98 = getelementptr inbounds nuw %struct.yyjson_str_pool, ptr %97, i32 0, i32 2
  %99 = load i64, ptr %98, align 8, !tbaa !45
  %100 = icmp ult i64 %96, %99
  br i1 %100, label %101, label %105

101:                                              ; preds = %94
  %102 = load ptr, ptr %5, align 8, !tbaa !43
  %103 = getelementptr inbounds nuw %struct.yyjson_str_pool, ptr %102, i32 0, i32 3
  %104 = load i64, ptr %103, align 8, !tbaa !56
  store i64 %104, ptr %9, align 8, !tbaa !10
  br label %105

105:                                              ; preds = %101, %94
  %106 = load i64, ptr %9, align 8, !tbaa !10
  %107 = load ptr, ptr %5, align 8, !tbaa !43
  %108 = getelementptr inbounds nuw %struct.yyjson_str_pool, ptr %107, i32 0, i32 2
  store i64 %106, ptr %108, align 8, !tbaa !45
  store i1 true, ptr %4, align 1
  store i32 1, ptr %11, align 4
  br label %109

109:                                              ; preds = %105, %55, %21
  call void @llvm.lifetime.end.p0(i64 8, ptr %10) #13
  call void @llvm.lifetime.end.p0(i64 8, ptr %9) #13
  call void @llvm.lifetime.end.p0(i64 8, ptr %8) #13
  %110 = load i1, ptr %4, align 1
  ret i1 %110
}